target datalayout = "e-m:e-p270:32:32-p271:32:32-p272:64:64-i64:64-i128:128-f80:128-n8:16:32:64-S128"
target triple = "x86_64-pc-linux-gnu"

; Function Attrs: mustprogress uwtable
define hidden noundef i32 @_ZN4cvc58internal6theory5arith10transKindsENS0_4kind6Kind_tES4_(i32 noundef %0, i32 noundef %1) #4 {
  %3 = alloca i32, align 4
  %4 = alloca i32, align 4
  %5 = alloca i32, align 4
  store i32 %0, ptr %4, align 4, !tbaa !3
  store i32 %1, ptr %5, align 4, !tbaa !3
  %6 = load i32, ptr %5, align 4, !tbaa !3
  %7 = load i32, ptr %4, align 4, !tbaa !3
  %8 = icmp slt i32 %6, %7
  br i1 %8, label %9, label %13

9:                                                ; preds = %2
  %10 = load i32, ptr %5, align 4, !tbaa !3
  %11 = load i32, ptr %4, align 4, !tbaa !3
  %12 = call noundef i32 @_ZN4cvc58internal6theory5arith10transKindsENS0_4kind6Kind_tES4_(i32 noundef %10, i32 noundef %11)
  store i32 %12, ptr %3, align 4
  br label %46

13:                                               ; preds = %2
  %14 = load i32, ptr %4, align 4, !tbaa !3
  %15 = load i32, ptr %5, align 4, !tbaa !3
  %16 = icmp eq i32 %14, %15
  br i1 %16, label %17, label %19

17:                                               ; preds = %13
  %18 = load i32, ptr %4, align 4, !tbaa !3
  store i32 %18, ptr %3, align 4
  br label %46

19:                                               ; preds = %13
  br label %20

20:                                               ; preds = %19
  %21 = load i32, ptr %4, align 4, !tbaa !3
  %22 = icmp eq i32 %21, 5
  br i1 %22, label %23, label %25

23:                                               ; preds = %20
  %24 = load i32, ptr %5, align 4, !tbaa !3
  store i32 %24, ptr %3, align 4
  br label %46

25:                                               ; preds = %20
  %26 = load i32, ptr %4, align 4, !tbaa !3
  %27 = icmp eq i32 %26, 75
  br i1 %27, label %28, label %34

28:                                               ; preds = %25
  %29 = load i32, ptr %5, align 4, !tbaa !3
  %30 = icmp eq i32 %29, 76
  br i1 %30, label %31, label %33

31:                                               ; preds = %28
  %32 = load i32, ptr %4, align 4, !tbaa !3
  store i32 %32, ptr %3, align 4
  br label %46

33:                                               ; preds = %28
  br label %44

34:                                               ; preds = %25
  %35 = load i32, ptr %4, align 4, !tbaa !3
  %36 = icmp eq i32 %35, 77
  br i1 %36, label %37, label %43

37:                                               ; preds = %34
  %38 = load i32, ptr %5, align 4, !tbaa !3
  %39 = icmp eq i32 %38, 78
  br i1 %39, label %40, label %42

40:                                               ; preds = %37
  %41 = load i32, ptr %4, align 4, !tbaa !3
  store i32 %41, ptr %3, align 4
  br label %46

42:                                               ; preds = %37
  br label %43

43:                                               ; preds = %42, %34
  br label %44

44:                                               ; preds = %43, %33
  br label %45

45:                                               ; preds = %44
  store i32 -1, ptr %3, align 4
  br label %46

46:                                               ; preds = %45, %40, %31, %23, %17, %9
  %47 = load i32, ptr %3, align 4
  ret i32 %47
}