; Function Attrs: mustprogress nofree norecurse nosync nounwind willreturn memory(none) uwtable
define hidden noundef i32 @_ZN4cvc58internal6theory5arith10transKindsENS0_4kind6Kind_tES4_(i32 noundef %0, i32 noundef %1) local_unnamed_addr #3 {
  br label %tailrecurse

tailrecurse:                                      ; preds = %tailrecurse, %2
  %.tr = phi i32 [ %0, %2 ], [ %.tr20, %tailrecurse ]
  %.tr20 = phi i32 [ %1, %2 ], [ %.tr, %tailrecurse ]
  %3 = icmp slt i32 %.tr20, %.tr
  br i1 %3, label %tailrecurse, label %4

4:                                                ; preds = %tailrecurse
  %5 = icmp eq i32 %.tr, %.tr20
  br i1 %5, label %13, label %6

6:                                                ; preds = %4
  switch i32 %.tr, label %9 [
    i32 5, label %13
    i32 75, label %7
  ]

7:                                                ; preds = %6
  %8 = icmp eq i32 %.tr20, 76
  br i1 %8, label %13, label %12

9:                                                ; preds = %6
  %10 = icmp eq i32 %.tr, 77
  %11 = icmp eq i32 %.tr20, 78
  %or.cond = and i1 %10, %11
  br i1 %or.cond, label %13, label %12

12:                                               ; preds = %7, %9
  br label %13

13:                                               ; preds = %9, %7, %6, %4, %12
  %.0 = phi i32 [ -1, %12 ], [ %.tr, %4 ], [ %.tr20, %6 ], [ 75, %7 ], [ 77, %9 ]
  ret i32 %.0
}